; Function Attrs: mustprogress nofree norecurse nosync nounwind willreturn memory(argmem: readwrite) uwtable
define internal void @pointer_handle_axis_discrete(ptr noundef captures(none) %0, ptr readnone captures(none) %1, i32 noundef %2, i32 noundef %3) #8 {
  %5 = shl nsw i32 %3, 8
  %6 = getelementptr inbounds nuw i8, ptr %0, i64 320
  %7 = load ptr, ptr %6, align 8
  %.not.i = icmp eq ptr %7, null
  br i1 %.not.i, label %pointer_handle_axis_common.exit, label %8

8:                                                ; preds = %4
  switch i32 %2, label %pointer_handle_axis_common.exit [
    i32 0, label %9
    i32 1, label %19
  ]

9:                                                ; preds = %8
  %10 = getelementptr inbounds nuw i8, ptr %0, i64 376
  %11 = load i32, ptr %10, align 8
  %.not30.i = icmp eq i32 %11, 1
  br i1 %.not30.i, label %pointer_handle_axis_common.exit, label %12

12:                                               ; preds = %9
  store i32 1, ptr %10, align 8
  %13 = sext i32 %5 to i64
  %14 = add nsw i64 %13, 4807592602218004480
  %15 = bitcast i64 %14 to double
  %16 = fadd double %15, 0xC2B8000000000000
  %17 = fptrunc double %16 to float
  %18 = fsub float 0.000000e+00, %17
  br label %pointer_handle_axis_common.exit.sink.split

19:                                               ; preds = %8
  %20 = getelementptr inbounds nuw i8, ptr %0, i64 368
  %21 = load i32, ptr %20, align 8
  %.not28.i = icmp eq i32 %21, 1
  br i1 %.not28.i, label %pointer_handle_axis_common.exit, label %22

22:                                               ; preds = %19
  store i32 1, ptr %20, align 8
  %23 = sext i32 %5 to i64
  %24 = add nsw i64 %23, 4807592602218004480
  %25 = bitcast i64 %24 to double
  %26 = fadd double %25, 0xC2B8000000000000
  %27 = fptrunc double %26 to float
  br label %pointer_handle_axis_common.exit.sink.split

pointer_handle_axis_common.exit.sink.split:       ; preds = %22, %12
  %.sink4 = phi i64 [ 380, %12 ], [ 372, %22 ]
  %.sink = phi float [ %18, %12 ], [ %27, %22 ]
  %28 = getelementptr inbounds nuw i8, ptr %0, i64 %.sink4
  store float %.sink, ptr %28, align 4
  br label %pointer_handle_axis_common.exit

pointer_handle_axis_common.exit:                  ; preds = %pointer_handle_axis_common.exit.sink.split, %4, %8, %9, %19
  ret void
}